target datalayout = "e-m:e-p270:32:32-p271:32:32-p272:64:64-i64:64-i128:128-f80:128-n8:16:32:64-S128"
target triple = "x86_64-pc-linux-gnu"

%struct._zval_struct = type { %union._zend_value, %union.anon, %union.anon.2 }
%union._zend_value = type { i64 }
%union.anon = type { i32 }
%union.anon.2 = type { i32 }
%struct._zend_array = type { %struct._zend_refcounted_h, %union.anon.4, i32, %union.anon.6, i32, i32, i32, i32, i64, ptr }
%struct._zend_refcounted_h = type { i32, %union.anon.3 }
%union.anon.3 = type { i32 }
%union.anon.4 = type { i32 }
%union.anon.6 = type { ptr }
%struct._spl_array_object = type { %struct._zval_struct, i32, i32, i8, i8, ptr, ptr, ptr, ptr, ptr, ptr, ptr, %struct._zend_object }
%struct._zend_object = type { %struct._zend_refcounted_h, i32, ptr, ptr, ptr, [1 x %struct._zval_struct] }
%struct._zend_class_entry = type { i8, ptr, %union.anon.8, i32, i32, i32, i32, ptr, ptr, ptr, %struct._zend_array, %struct._zend_array, %struct._zend_array, ptr, ptr, ptr, ptr, ptr, ptr, ptr, ptr, ptr, ptr, ptr, ptr, ptr, ptr, ptr, ptr, ptr, ptr, ptr, %union.anon.9, ptr, ptr, ptr, ptr, i32, i32, %union.anon.10, ptr, ptr, ptr, ptr, i32, ptr, ptr, %union.anon.11 }
%union.anon.8 = type { ptr }
%union.anon.9 = type { ptr }
%union.anon.10 = type { ptr }
%union.anon.11 = type { %struct.anon.12 }
%struct.anon.12 = type { ptr, i32, i32 }
%struct._zend_string = type { %struct._zend_refcounted_h, i64, i64, [1 x i8] }

; Function Attrs: nounwind uwtable
define internal ptr @spl_array_from_obj(ptr noundef %0) #0 {
  %2 = alloca ptr, align 8
  store ptr %0, ptr %2, align 8
  %3 = load ptr, ptr %2, align 8
  %4 = getelementptr inbounds i8, ptr %3, i64 -88
  ret ptr %4
}

; Function Attrs: nounwind uwtable
define internal ptr @spl_array_get_property_ptr_ptr(ptr noundef %0, ptr noundef %1, i32 noundef %2, ptr noundef %3) #0 {
  %5 = alloca i32, align 4
  %6 = alloca ptr, align 8
  %7 = alloca ptr, align 8
  %8 = alloca ptr, align 8
  %9 = alloca i32, align 4
  %10 = alloca ptr, align 8
  %11 = alloca ptr, align 8
  %12 = alloca %struct._zval_struct, align 8
  %13 = alloca ptr, align 8
  %14 = alloca ptr, align 8
  store ptr %0, ptr %7, align 8
  store ptr %1, ptr %8, align 8
  store i32 %2, ptr %9, align 4
  store ptr %3, ptr %10, align 8
  %15 = load ptr, ptr %7, align 8
  %16 = call ptr @spl_array_from_obj(ptr noundef %15)
  store ptr %16, ptr %11, align 8
  %17 = load ptr, ptr %11, align 8
  %18 = getelementptr inbounds %struct._spl_array_object, ptr %17, i32 0, i32 2
  %19 = load i32, ptr %18, align 4
  %20 = and i32 %19, 2
  %21 = icmp ne i32 %20, 0
  br i1 %21, label %22, label %59

22:                                               ; preds = %4
  %23 = load ptr, ptr %7, align 8
  %24 = load ptr, ptr %8, align 8
  %25 = call i32 @zend_std_has_property(ptr noundef %23, ptr noundef %24, i32 noundef 2, ptr noundef null)
  %26 = icmp ne i32 %25, 0
  br i1 %26, label %59, label %27

27:                                               ; preds = %22
  %28 = load ptr, ptr %11, align 8
  %29 = getelementptr inbounds %struct._spl_array_object, ptr %28, i32 0, i32 6
  %30 = load ptr, ptr %29, align 8
  %31 = icmp ne ptr %30, null
  br i1 %31, label %32, label %33

32:                                               ; preds = %27
  store ptr null, ptr %6, align 8
  br label %65

33:                                               ; preds = %27
  br label %34

34:                                               ; preds = %33
  store ptr %12, ptr %13, align 8
  %35 = load ptr, ptr %8, align 8
  store ptr %35, ptr %14, align 8
  %36 = load ptr, ptr %14, align 8
  %37 = load ptr, ptr %13, align 8
  %38 = getelementptr inbounds %struct._zval_struct, ptr %37, i32 0, i32 0
  store ptr %36, ptr %38, align 8
  %39 = load ptr, ptr %14, align 8
  %40 = getelementptr inbounds %struct._zend_string, ptr %39, i32 0, i32 0
  %41 = getelementptr inbounds %struct._zend_refcounted_h, ptr %40, i32 0, i32 1
  %42 = load i32, ptr %41, align 4
  store i32 %42, ptr %5, align 4
  %43 = load i32, ptr %5, align 4
  %44 = and i32 %43, 1008
  %45 = and i32 %44, 64
  %46 = icmp ne i32 %45, 0
  %47 = select i1 %46, i32 6, i32 262
  %48 = load ptr, ptr %13, align 8
  %49 = getelementptr inbounds %struct._zval_struct, ptr %48, i32 0, i32 1
  store i32 %47, ptr %49, align 8
  br label %50

50:                                               ; preds = %34
  %51 = load ptr, ptr %11, align 8
  %52 = load ptr, ptr %7, align 8
  %53 = getelementptr inbounds %struct._zend_object, ptr %52, i32 0, i32 2
  %54 = load ptr, ptr %53, align 8
  %55 = getelementptr inbounds %struct._zend_class_entry, ptr %54, i32 0, i32 1
  %56 = load ptr, ptr %55, align 8
  %57 = load i32, ptr %9, align 4
  %58 = call ptr @spl_array_get_dimension_ptr(i1 noundef zeroext true, ptr noundef %51, ptr noundef %56, ptr noundef %12, i32 noundef %57)
  store ptr %58, ptr %6, align 8
  br label %65

59:                                               ; preds = %22, %4
  %60 = load ptr, ptr %7, align 8
  %61 = load ptr, ptr %8, align 8
  %62 = load i32, ptr %9, align 4
  %63 = load ptr, ptr %10, align 8
  %64 = call ptr @zend_std_get_property_ptr_ptr(ptr noundef %60, ptr noundef %61, i32 noundef %62, ptr noundef %63)
  store ptr %64, ptr %6, align 8
  br label %65

65:                                               ; preds = %59, %50, %32
  %66 = load ptr, ptr %6, align 8
  ret ptr %66
}