; Function Attrs: nounwind uwtable
define internal ptr @spl_array_get_property_ptr_ptr(ptr noundef %0, ptr noundef %1, i32 noundef %2, ptr noundef %3) #0 {
  %5 = alloca %struct._zval_struct, align 8
  %6 = getelementptr inbounds i8, ptr %0, i64 -88
  %7 = getelementptr inbounds i8, ptr %0, i64 -68
  %8 = load i32, ptr %7, align 4
  %9 = and i32 %8, 2
  %.not = icmp eq i32 %9, 0
  br i1 %.not, label %26, label %10

10:                                               ; preds = %4
  %11 = tail call i32 @zend_std_has_property(ptr noundef nonnull %0, ptr noundef %1, i32 noundef 2, ptr noundef null) #11
  %.not18 = icmp eq i32 %11, 0
  br i1 %.not18, label %12, label %26

12:                                               ; preds = %10
  %13 = getelementptr inbounds i8, ptr %0, i64 -48
  %14 = load ptr, ptr %13, align 8
  %.not19 = icmp eq ptr %14, null
  br i1 %.not19, label %15, label %28

15:                                               ; preds = %12
  store ptr %1, ptr %5, align 8
  %16 = getelementptr inbounds i8, ptr %1, i64 4
  %17 = load i32, ptr %16, align 4
  %18 = and i32 %17, 64
  %.not20 = icmp eq i32 %18, 0
  %19 = select i1 %.not20, i32 262, i32 6
  %20 = getelementptr inbounds i8, ptr %5, i64 8
  store i32 %19, ptr %20, align 8
  %21 = getelementptr inbounds i8, ptr %0, i64 16
  %22 = load ptr, ptr %21, align 8
  %23 = getelementptr inbounds i8, ptr %22, i64 8
  %24 = load ptr, ptr %23, align 8
  %25 = call fastcc ptr @spl_array_get_dimension_ptr(ptr noundef nonnull %6, ptr noundef %24, ptr noundef nonnull %5, i32 noundef %2)
  br label %28

26:                                               ; preds = %10, %4
  %27 = tail call ptr @zend_std_get_property_ptr_ptr(ptr noundef nonnull %0, ptr noundef %1, i32 noundef %2, ptr noundef %3) #11
  br label %28

28:                                               ; preds = %12, %26, %15
  %.0 = phi ptr [ %27, %26 ], [ %25, %15 ], [ null, %12 ]
  ret ptr %.0
}